target datalayout = "e-m:e-p270:32:32-p271:32:32-p272:64:64-i64:64-i128:128-f80:128-n8:16:32:64-S128"
target triple = "x86_64-pc-linux-gnu"

%class.probe.base = type <{ ptr, i32 }>
%class.probe = type <{ ptr, i32, [4 x i8] }>
%class.bin_probe = type { %class.probe.base, ptr, ptr }

@_ZTV5probe = linkonce_odr hidden unnamed_addr constant { [5 x ptr] } { [5 x ptr] [ptr null, ptr @_ZTI5probe, ptr @_ZN5probeD2Ev, ptr @_ZN5probeD0Ev, ptr @__cxa_pure_virtual] }, comdat, align 8
@_ZTV9bin_probe = linkonce_odr hidden unnamed_addr constant { [5 x ptr] } { [5 x ptr] [ptr null, ptr @_ZTI9bin_probe, ptr @_ZN9bin_probeD2Ev, ptr @_ZN9bin_probeD0Ev, ptr @__cxa_pure_virtual] }, comdat, align 8
@_ZTV8or_probe = linkonce_odr hidden unnamed_addr constant { [5 x ptr] } { [5 x ptr] [ptr null, ptr @_ZTI8or_probe, ptr @_ZN9bin_probeD2Ev, ptr @_ZN8or_probeD0Ev, ptr @_ZN8or_probeclERK4goal] }, comdat, align 8

; Function Attrs: mustprogress nounwind uwtable
define linkonce_odr hidden void @_ZN5probe7inc_refEv(ptr noundef nonnull align 8 dereferenceable(12) %0) #7 comdat align 2 {
  %2 = alloca ptr, align 8
  store ptr %0, ptr %2, align 8, !tbaa !24
  %3 = load ptr, ptr %2, align 8
  %4 = getelementptr inbounds nuw %class.probe, ptr %3, i32 0, i32 1
  %5 = load i32, ptr %4, align 8, !tbaa !73
  %6 = add i32 %5, 1
  store i32 %6, ptr %4, align 8, !tbaa !73
  ret void
}

; Function Attrs: inlinehint mustprogress nounwind uwtable
define linkonce_odr hidden void @_ZN5probeC2Ev(ptr noundef nonnull align 8 dereferenceable(12) %0) unnamed_addr #6 comdat align 2 {
  %2 = alloca ptr, align 8
  store ptr %0, ptr %2, align 8, !tbaa !24
  %3 = load ptr, ptr %2, align 8
  store ptr getelementptr inbounds inrange(-16, 24) ({ [5 x ptr] }, ptr @_ZTV5probe, i32 0, i32 0, i32 2), ptr %3, align 8, !tbaa !8
  %4 = getelementptr inbounds nuw %class.probe, ptr %3, i32 0, i32 1
  store i32 0, ptr %4, align 8, !tbaa !73
  ret void
}

; Function Attrs: mustprogress nounwind uwtable
define linkonce_odr hidden void @_ZN9bin_probeC2EP5probeS1_(ptr noundef nonnull align 8 dereferenceable(32) %0, ptr noundef %1, ptr noundef %2) unnamed_addr #7 comdat align 2 {
  %4 = alloca ptr, align 8
  %5 = alloca ptr, align 8
  %6 = alloca ptr, align 8
  store ptr %0, ptr %4, align 8, !tbaa !111
  store ptr %1, ptr %5, align 8, !tbaa !24
  store ptr %2, ptr %6, align 8, !tbaa !24
  %7 = load ptr, ptr %4, align 8
  call void @_ZN5probeC2Ev(ptr noundef nonnull align 8 dereferenceable(12) %7) #3
  store ptr getelementptr inbounds inrange(-16, 24) ({ [5 x ptr] }, ptr @_ZTV9bin_probe, i32 0, i32 0, i32 2), ptr %7, align 8, !tbaa !8
  %8 = getelementptr inbounds nuw %class.bin_probe, ptr %7, i32 0, i32 1
  %9 = load ptr, ptr %5, align 8, !tbaa !24
  store ptr %9, ptr %8, align 8, !tbaa !113
  %10 = getelementptr inbounds nuw %class.bin_probe, ptr %7, i32 0, i32 2
  %11 = load ptr, ptr %6, align 8, !tbaa !24
  store ptr %11, ptr %10, align 8, !tbaa !115
  %12 = load ptr, ptr %5, align 8, !tbaa !24
  call void @_ZN5probe7inc_refEv(ptr noundef nonnull align 8 dereferenceable(12) %12)
  %13 = load ptr, ptr %6, align 8, !tbaa !24
  call void @_ZN5probe7inc_refEv(ptr noundef nonnull align 8 dereferenceable(12) %13)
  ret void
}

; Function Attrs: mustprogress nounwind uwtable
define linkonce_odr hidden void @_ZN8or_probeC2EP5probeS1_(ptr noundef nonnull align 8 dereferenceable(32) %0, ptr noundef %1, ptr noundef %2) unnamed_addr #7 comdat align 2 {
  %4 = alloca ptr, align 8
  %5 = alloca ptr, align 8
  %6 = alloca ptr, align 8
  store ptr %0, ptr %4, align 8, !tbaa !30
  store ptr %1, ptr %5, align 8, !tbaa !24
  store ptr %2, ptr %6, align 8, !tbaa !24
  %7 = load ptr, ptr %4, align 8
  %8 = load ptr, ptr %5, align 8, !tbaa !24
  %9 = load ptr, ptr %6, align 8, !tbaa !24
  call void @_ZN9bin_probeC2EP5probeS1_(ptr noundef nonnull align 8 dereferenceable(32) %7, ptr noundef %8, ptr noundef %9)
  store ptr getelementptr inbounds inrange(-16, 24) ({ [5 x ptr] }, ptr @_ZTV8or_probe, i32 0, i32 0, i32 2), ptr %7, align 8, !tbaa !8
  ret void
}

; Function Attrs: mustprogress uwtable
define hidden noundef ptr @_Z5mk_orP5probeS0_(ptr noundef %0, ptr noundef %1) #4 {
  %3 = alloca ptr, align 8
  %4 = alloca ptr, align 8
  store ptr %0, ptr %3, align 8, !tbaa !24
  store ptr %1, ptr %4, align 8, !tbaa !24
  %5 = call noalias noundef ptr @_ZN6memory8allocateEm(i64 noundef 32)
  %6 = load ptr, ptr %3, align 8, !tbaa !24
  %7 = load ptr, ptr %4, align 8, !tbaa !24
  call void @_ZN8or_probeC2EP5probeS1_(ptr noundef nonnull align 8 dereferenceable(32) %5, ptr noundef %6, ptr noundef %7)
  ret ptr %5
}